target datalayout = "e-m:e-p270:32:32-p271:32:32-p272:64:64-i64:64-i128:128-f80:128-n8:16:32:64-S128"
target triple = "x86_64-pc-linux-gnu"

%struct.Gia_Obj_t_ = type <{ i64, i32 }>
%struct.Gia_Man_t_ = type { ptr, ptr, i32, i32, i32, i32, ptr, ptr, i32, i32, i32, ptr, ptr, %struct.Vec_Int_t_, %struct.Vec_Int_t_, i32, i32, i32, %struct.Vec_Int_t_, ptr, ptr, ptr, i32, i32, i32, i32, ptr, ptr, ptr, ptr, ptr, i32, i32, ptr, i32, ptr, ptr, ptr, ptr, ptr, ptr, ptr, ptr, ptr, ptr, ptr, ptr, ptr, ptr, ptr, ptr, ptr, ptr, %struct.Vec_Int_t_, %struct.Vec_Int_t_, ptr, ptr, ptr, ptr, ptr, ptr, ptr, ptr, ptr, ptr, ptr, ptr, ptr, ptr, ptr, ptr, ptr, ptr, ptr, ptr, ptr, i32, float, float, ptr, ptr, i32, ptr, ptr, ptr, ptr, ptr, ptr, ptr, ptr, ptr, ptr, ptr, ptr, ptr, ptr, ptr, i64, i64, ptr, ptr, i32, i32, i32, i32, i32, i32, i32, i32, i32, i32, i32, i32, ptr, ptr, ptr, ptr, ptr, ptr, ptr, ptr, i32, i32, i32, ptr, i32, i32, ptr, ptr, ptr, ptr, ptr, ptr, i32, i32, ptr, %struct.Vec_Int_t_, %struct.Vec_Int_t_, %struct.Vec_Int_t_, ptr, ptr, ptr, i32, i32, i32, i32, ptr, ptr, ptr, ptr, ptr }
%struct.Vec_Int_t_ = type { i32, i32, ptr }

@.str.4 = private unnamed_addr constant [35 x i8] c"Current area = %d.  Period = %d.  \00", align 1
@.str.5 = private unnamed_addr constant [36 x i8] c"Delay checking failed for %d cuts.\0A\00", align 1

; Function Attrs: inlinehint nounwind uwtable
define internal ptr @Gia_ManObj(ptr noundef %0, i32 noundef %1) #1 {
  %3 = alloca ptr, align 8
  %4 = alloca i32, align 4
  store ptr %0, ptr %3, align 8, !tbaa !3
  store i32 %1, ptr %4, align 4, !tbaa !13
  %5 = load ptr, ptr %3, align 8, !tbaa !3
  %6 = getelementptr inbounds nuw %struct.Gia_Man_t_, ptr %5, i32 0, i32 6
  %7 = load ptr, ptr %6, align 8, !tbaa !36
  %8 = load i32, ptr %4, align 4, !tbaa !13
  %9 = sext i32 %8 to i64
  %10 = getelementptr inbounds %struct.Gia_Obj_t_, ptr %7, i64 %9
  ret ptr %10
}

; Function Attrs: inlinehint nounwind uwtable
define internal i32 @Vec_IntEntry(ptr noundef %0, i32 noundef %1) #1 {
  %3 = alloca ptr, align 8
  %4 = alloca i32, align 4
  store ptr %0, ptr %3, align 8, !tbaa !33
  store i32 %1, ptr %4, align 4, !tbaa !13
  %5 = load ptr, ptr %3, align 8, !tbaa !33
  %6 = getelementptr inbounds nuw %struct.Vec_Int_t_, ptr %5, i32 0, i32 2
  %7 = load ptr, ptr %6, align 8, !tbaa !38
  %8 = load i32, ptr %4, align 4, !tbaa !13
  %9 = sext i32 %8 to i64
  %10 = getelementptr inbounds i32, ptr %7, i64 %9
  %11 = load i32, ptr %10, align 4, !tbaa !13
  ret i32 %11
}

; Function Attrs: inlinehint nounwind uwtable
define internal ptr @Gia_ObjFanin0(ptr noundef %0) #1 {
  %2 = alloca ptr, align 8
  store ptr %0, ptr %2, align 8, !tbaa !8
  %3 = load ptr, ptr %2, align 8, !tbaa !8
  %4 = load ptr, ptr %2, align 8, !tbaa !8
  %5 = load i64, ptr %4, align 4
  %6 = and i64 %5, 536870911
  %7 = trunc i64 %6 to i32
  %8 = sext i32 %7 to i64
  %9 = sub i64 0, %8
  %10 = getelementptr inbounds %struct.Gia_Obj_t_, ptr %3, i64 %9
  ret ptr %10
}

; Function Attrs: inlinehint nounwind uwtable
define internal ptr @Gia_ManCo(ptr noundef %0, i32 noundef %1) #1 {
  %3 = alloca ptr, align 8
  %4 = alloca i32, align 4
  store ptr %0, ptr %3, align 8, !tbaa !3
  store i32 %1, ptr %4, align 4, !tbaa !13
  %5 = load ptr, ptr %3, align 8, !tbaa !3
  %6 = load ptr, ptr %3, align 8, !tbaa !3
  %7 = getelementptr inbounds nuw %struct.Gia_Man_t_, ptr %6, i32 0, i32 12
  %8 = load ptr, ptr %7, align 8, !tbaa !51
  %9 = load i32, ptr %4, align 4, !tbaa !13
  %10 = call i32 @Vec_IntEntry(ptr noundef %8, i32 noundef %9)
  %11 = call ptr @Gia_ManObj(ptr noundef %5, i32 noundef %10)
  ret ptr %11
}

; Function Attrs: inlinehint nounwind uwtable
define internal i32 @Vec_IntSize(ptr noundef %0) #1 {
  %2 = alloca ptr, align 8
  store ptr %0, ptr %2, align 8, !tbaa !33
  %3 = load ptr, ptr %2, align 8, !tbaa !33
  %4 = getelementptr inbounds nuw %struct.Vec_Int_t_, ptr %3, i32 0, i32 1
  %5 = load i32, ptr %4, align 4, !tbaa !45
  ret i32 %5
}

; Function Attrs: inlinehint nounwind uwtable
define internal void @Vec_IntFreeP(ptr noundef %0) #1 {
  %2 = alloca ptr, align 8
  store ptr %0, ptr %2, align 8, !tbaa !95
  %3 = load ptr, ptr %2, align 8, !tbaa !95
  %4 = load ptr, ptr %3, align 8, !tbaa !33
  %5 = icmp eq ptr %4, null
  br i1 %5, label %6, label %7

6:                                                ; preds = %1
  br label %32

7:                                                ; preds = %1
  %8 = load ptr, ptr %2, align 8, !tbaa !95
  %9 = load ptr, ptr %8, align 8, !tbaa !33
  %10 = getelementptr inbounds nuw %struct.Vec_Int_t_, ptr %9, i32 0, i32 2
  %11 = load ptr, ptr %10, align 8, !tbaa !38
  %12 = icmp ne ptr %11, null
  br i1 %12, label %13, label %21

13:                                               ; preds = %7
  %14 = load ptr, ptr %2, align 8, !tbaa !95
  %15 = load ptr, ptr %14, align 8, !tbaa !33
  %16 = getelementptr inbounds nuw %struct.Vec_Int_t_, ptr %15, i32 0, i32 2
  %17 = load ptr, ptr %16, align 8, !tbaa !38
  call void @free(ptr noundef %17) #11
  %18 = load ptr, ptr %2, align 8, !tbaa !95
  %19 = load ptr, ptr %18, align 8, !tbaa !33
  %20 = getelementptr inbounds nuw %struct.Vec_Int_t_, ptr %19, i32 0, i32 2
  store ptr null, ptr %20, align 8, !tbaa !38
  br label %22

21:                                               ; preds = %7
  br label %22

22:                                               ; preds = %21, %13
  %23 = load ptr, ptr %2, align 8, !tbaa !95
  %24 = load ptr, ptr %23, align 8, !tbaa !33
  %25 = icmp ne ptr %24, null
  br i1 %25, label %26, label %30

26:                                               ; preds = %22
  %27 = load ptr, ptr %2, align 8, !tbaa !95
  %28 = load ptr, ptr %27, align 8, !tbaa !33
  call void @free(ptr noundef %28) #11
  %29 = load ptr, ptr %2, align 8, !tbaa !95
  store ptr null, ptr %29, align 8, !tbaa !33
  br label %31

30:                                               ; preds = %22
  br label %31

31:                                               ; preds = %30, %26
  br label %32

32:                                               ; preds = %31, %6
  ret void
}

; Function Attrs: nounwind uwtable
define i32 @Gia_ManSifDelay(ptr noundef %0, ptr noundef %1, ptr noundef %2, i32 noundef %3) #0 {
  %5 = alloca ptr, align 8
  %6 = alloca ptr, align 8
  %7 = alloca ptr, align 8
  %8 = alloca i32, align 4
  %9 = alloca ptr, align 8
  %10 = alloca i32, align 4
  %11 = alloca i32, align 4
  store ptr %0, ptr %5, align 8, !tbaa !3
  store ptr %1, ptr %6, align 8, !tbaa !33
  store ptr %2, ptr %7, align 8, !tbaa !33
  store i32 %3, ptr %8, align 4, !tbaa !13
  call void @llvm.lifetime.start.p0(i64 8, ptr %9) #11
  call void @llvm.lifetime.start.p0(i64 4, ptr %10) #11
  call void @llvm.lifetime.start.p0(i64 4, ptr %11) #11
  store i32 0, ptr %11, align 4, !tbaa !13
  %12 = load ptr, ptr %5, align 8, !tbaa !3
  call void @Gia_ManIncrementTravId(ptr noundef %12)
  store i32 0, ptr %10, align 4, !tbaa !13
  br label %13

13:                                               ; preds = %37, %4
  %14 = load i32, ptr %10, align 4, !tbaa !13
  %15 = load ptr, ptr %5, align 8, !tbaa !3
  %16 = getelementptr inbounds nuw %struct.Gia_Man_t_, ptr %15, i32 0, i32 12
  %17 = load ptr, ptr %16, align 8, !tbaa !51
  %18 = call i32 @Vec_IntSize(ptr noundef %17)
  %19 = icmp slt i32 %14, %18
  br i1 %19, label %20, label %25

20:                                               ; preds = %13
  %21 = load ptr, ptr %5, align 8, !tbaa !3
  %22 = load i32, ptr %10, align 4, !tbaa !13
  %23 = call ptr @Gia_ManCo(ptr noundef %21, i32 noundef %22)
  store ptr %23, ptr %9, align 8, !tbaa !8
  %24 = icmp ne ptr %23, null
  br label %25

25:                                               ; preds = %20, %13
  %26 = phi i1 [ false, %13 ], [ %24, %20 ]
  br i1 %26, label %27, label %40

27:                                               ; preds = %25
  %28 = load ptr, ptr %5, align 8, !tbaa !3
  %29 = load ptr, ptr %9, align 8, !tbaa !8
  %30 = call ptr @Gia_ObjFanin0(ptr noundef %29)
  %31 = load ptr, ptr %6, align 8, !tbaa !33
  %32 = load ptr, ptr %7, align 8, !tbaa !33
  %33 = load i32, ptr %8, align 4, !tbaa !13
  %34 = call i32 @Gia_ManSifDelay_rec(ptr noundef %28, ptr noundef %30, ptr noundef %31, ptr noundef %32, i32 noundef %33)
  %35 = load i32, ptr %11, align 4, !tbaa !13
  %36 = add nsw i32 %35, %34
  store i32 %36, ptr %11, align 4, !tbaa !13
  br label %37

37:                                               ; preds = %27
  %38 = load i32, ptr %10, align 4, !tbaa !13
  %39 = add nsw i32 %38, 1
  store i32 %39, ptr %10, align 4, !tbaa !13
  br label %13, !llvm.loop !100

40:                                               ; preds = %25
  %41 = load i32, ptr %11, align 4, !tbaa !13
  call void @llvm.lifetime.end.p0(i64 4, ptr %11) #11
  call void @llvm.lifetime.end.p0(i64 4, ptr %10) #11
  call void @llvm.lifetime.end.p0(i64 8, ptr %9) #11
  ret i32 %41
}

; Function Attrs: nounwind uwtable
define i32 @Gia_ManSifArea(ptr noundef %0, ptr noundef %1, i32 noundef %2) #0 {
  %4 = alloca ptr, align 8
  %5 = alloca ptr, align 8
  %6 = alloca i32, align 4
  %7 = alloca ptr, align 8
  %8 = alloca i32, align 4
  %9 = alloca i32, align 4
  store ptr %0, ptr %4, align 8, !tbaa !3
  store ptr %1, ptr %5, align 8, !tbaa !33
  store i32 %2, ptr %6, align 4, !tbaa !13
  call void @llvm.lifetime.start.p0(i64 8, ptr %7) #11
  call void @llvm.lifetime.start.p0(i64 4, ptr %8) #11
  call void @llvm.lifetime.start.p0(i64 4, ptr %9) #11
  store i32 0, ptr %9, align 4, !tbaa !13
  %10 = load ptr, ptr %4, align 8, !tbaa !3
  call void @Gia_ManIncrementTravId(ptr noundef %10)
  store i32 0, ptr %8, align 4, !tbaa !13
  br label %11

11:                                               ; preds = %34, %3
  %12 = load i32, ptr %8, align 4, !tbaa !13
  %13 = load ptr, ptr %4, align 8, !tbaa !3
  %14 = getelementptr inbounds nuw %struct.Gia_Man_t_, ptr %13, i32 0, i32 12
  %15 = load ptr, ptr %14, align 8, !tbaa !51
  %16 = call i32 @Vec_IntSize(ptr noundef %15)
  %17 = icmp slt i32 %12, %16
  br i1 %17, label %18, label %23

18:                                               ; preds = %11
  %19 = load ptr, ptr %4, align 8, !tbaa !3
  %20 = load i32, ptr %8, align 4, !tbaa !13
  %21 = call ptr @Gia_ManCo(ptr noundef %19, i32 noundef %20)
  store ptr %21, ptr %7, align 8, !tbaa !8
  %22 = icmp ne ptr %21, null
  br label %23

23:                                               ; preds = %18, %11
  %24 = phi i1 [ false, %11 ], [ %22, %18 ]
  br i1 %24, label %25, label %37

25:                                               ; preds = %23
  %26 = load ptr, ptr %4, align 8, !tbaa !3
  %27 = load ptr, ptr %7, align 8, !tbaa !8
  %28 = call ptr @Gia_ObjFanin0(ptr noundef %27)
  %29 = load ptr, ptr %5, align 8, !tbaa !33
  %30 = load i32, ptr %6, align 4, !tbaa !13
  %31 = call i32 @Gia_ManSifArea_rec(ptr noundef %26, ptr noundef %28, ptr noundef %29, i32 noundef %30)
  %32 = load i32, ptr %9, align 4, !tbaa !13
  %33 = add nsw i32 %32, %31
  store i32 %33, ptr %9, align 4, !tbaa !13
  br label %34

34:                                               ; preds = %25
  %35 = load i32, ptr %8, align 4, !tbaa !13
  %36 = add nsw i32 %35, 1
  store i32 %36, ptr %8, align 4, !tbaa !13
  br label %11, !llvm.loop !98

37:                                               ; preds = %23
  %38 = load i32, ptr %9, align 4, !tbaa !13
  call void @llvm.lifetime.end.p0(i64 4, ptr %9) #11
  call void @llvm.lifetime.end.p0(i64 4, ptr %8) #11
  call void @llvm.lifetime.end.p0(i64 8, ptr %7) #11
  ret i32 %38
}

; Function Attrs: nounwind uwtable
define ptr @Gia_ManSifTransform(ptr noundef %0, ptr noundef %1, ptr noundef %2, i32 noundef %3, i32 noundef %4, i32 noundef %5) #0 {
  %7 = alloca ptr, align 8
  %8 = alloca ptr, align 8
  %9 = alloca ptr, align 8
  %10 = alloca i32, align 4
  %11 = alloca i32, align 4
  %12 = alloca i32, align 4
  %13 = alloca ptr, align 8
  %14 = alloca ptr, align 8
  store ptr %0, ptr %7, align 8, !tbaa !3
  store ptr %1, ptr %8, align 8, !tbaa !33
  store ptr %2, ptr %9, align 8, !tbaa !33
  store i32 %3, ptr %10, align 4, !tbaa !13
  store i32 %4, ptr %11, align 4, !tbaa !13
  store i32 %5, ptr %12, align 4, !tbaa !13
  call void @llvm.lifetime.start.p0(i64 8, ptr %13) #11
  store ptr null, ptr %13, align 8, !tbaa !3
  call void @llvm.lifetime.start.p0(i64 8, ptr %14) #11
  store ptr null, ptr %14, align 8, !tbaa !33
  %15 = load i32, ptr %12, align 4, !tbaa !13
  %16 = icmp ne i32 %15, 0
  br i1 %16, label %17, label %25

17:                                               ; preds = %6
  %18 = load ptr, ptr %7, align 8, !tbaa !3
  %19 = load ptr, ptr %8, align 8, !tbaa !33
  %20 = load i32, ptr %10, align 4, !tbaa !13
  %21 = add nsw i32 %20, 1
  %22 = call i32 @Gia_ManSifArea(ptr noundef %18, ptr noundef %19, i32 noundef %21)
  %23 = load i32, ptr %11, align 4, !tbaa !13
  %24 = call i32 (ptr, ...) @printf(ptr noundef @.str.4, i32 noundef %22, i32 noundef %23)
  br label %25

25:                                               ; preds = %17, %6
  %26 = load i32, ptr %12, align 4, !tbaa !13
  %27 = icmp ne i32 %26, 0
  br i1 %27, label %28, label %36

28:                                               ; preds = %25
  %29 = load ptr, ptr %7, align 8, !tbaa !3
  %30 = load ptr, ptr %8, align 8, !tbaa !33
  %31 = load ptr, ptr %9, align 8, !tbaa !33
  %32 = load i32, ptr %10, align 4, !tbaa !13
  %33 = add nsw i32 %32, 1
  %34 = call i32 @Gia_ManSifDelay(ptr noundef %29, ptr noundef %30, ptr noundef %31, i32 noundef %33)
  %35 = call i32 (ptr, ...) @printf(ptr noundef @.str.5, i32 noundef %34)
  br label %36

36:                                               ; preds = %28, %25
  %37 = load ptr, ptr %7, align 8, !tbaa !3
  %38 = load ptr, ptr %9, align 8, !tbaa !33
  %39 = load i32, ptr %11, align 4, !tbaa !13
  %40 = call ptr @Gia_ManSifTimesToCounts(ptr noundef %37, ptr noundef %38, i32 noundef %39)
  store ptr %40, ptr %14, align 8, !tbaa !33
  %41 = load ptr, ptr %7, align 8, !tbaa !3
  %42 = load ptr, ptr %14, align 8, !tbaa !33
  %43 = load i32, ptr %12, align 4, !tbaa !13
  %44 = call ptr @Gia_ManSifDerive(ptr noundef %41, ptr noundef %42, i32 noundef %43)
  store ptr %44, ptr %13, align 8, !tbaa !3
  call void @Vec_IntFreeP(ptr noundef %14)
  %45 = load ptr, ptr %13, align 8, !tbaa !3
  call void @llvm.lifetime.end.p0(i64 8, ptr %14) #11
  call void @llvm.lifetime.end.p0(i64 8, ptr %13) #11
  ret ptr %45
}