; Function Attrs: nounwind uwtable
define ptr @Gia_ManSifTransform(ptr noundef %0, ptr noundef readonly captures(none) %1, ptr noundef captures(none) %2, i32 noundef %3, i32 noundef %4, i32 noundef %5) local_unnamed_addr #0 {
  %.not = icmp eq i32 %5, 0
  br i1 %.not, label %.critedge, label %7

7:                                                ; preds = %6
  %8 = add nsw i32 %3, 1
  tail call void @Gia_ManIncrementTravId(ptr noundef %0) #24
  %9 = getelementptr i8, ptr %0, i64 32
  %10 = getelementptr inbounds nuw i8, ptr %0, i64 72
  %11 = load ptr, ptr %10, align 8, !tbaa !52
  %12 = getelementptr i8, ptr %11, i64 4
  %.val15.i = load i32, ptr %12, align 4, !tbaa !42
  %13 = icmp sgt i32 %.val15.i, 0
  br i1 %13, label %.lr.ph.i, label %Gia_ManSifArea.exit

.lr.ph.i:                                         ; preds = %7, %15
  %indvars.iv.i = phi i64 [ %indvars.iv.next.i, %15 ], [ 0, %7 ]
  %14 = phi ptr [ %27, %15 ], [ %11, %7 ]
  %.017.i = phi i32 [ %26, %15 ], [ 0, %7 ]
  %.val13.i = load ptr, ptr %9, align 8, !tbaa !28
  %.not.i = icmp eq ptr %.val13.i, null
  br i1 %.not.i, label %Gia_ManSifArea.exit, label %15

15:                                               ; preds = %.lr.ph.i
  %16 = getelementptr i8, ptr %14, i64 8
  %.val14.val.i = load ptr, ptr %16, align 8, !tbaa !39
  %17 = getelementptr inbounds nuw i32, ptr %.val14.val.i, i64 %indvars.iv.i
  %18 = load i32, ptr %17, align 4, !tbaa !29
  %19 = sext i32 %18 to i64
  %20 = getelementptr inbounds %struct.Gia_Obj_t_, ptr %.val13.i, i64 %19
  %21 = load i64, ptr %20, align 4
  %22 = and i64 %21, 536870911
  %23 = sub nsw i64 0, %22
  %24 = getelementptr inbounds %struct.Gia_Obj_t_, ptr %20, i64 %23
  %25 = tail call i32 @Gia_ManSifArea_rec(ptr noundef nonnull %0, ptr noundef nonnull %24, ptr noundef readonly %1, i32 noundef %8)
  %26 = add nsw i32 %25, %.017.i
  %indvars.iv.next.i = add nuw nsw i64 %indvars.iv.i, 1
  %27 = load ptr, ptr %10, align 8, !tbaa !52
  %28 = getelementptr i8, ptr %27, i64 4
  %.val.i = load i32, ptr %28, align 4, !tbaa !42
  %29 = sext i32 %.val.i to i64
  %30 = icmp slt i64 %indvars.iv.next.i, %29
  br i1 %30, label %.lr.ph.i, label %Gia_ManSifArea.exit, !llvm.loop !95

Gia_ManSifArea.exit:                              ; preds = %.lr.ph.i, %15, %7
  %.0.lcssa.i = phi i32 [ 0, %7 ], [ %.017.i, %.lr.ph.i ], [ %26, %15 ]
  %31 = tail call i32 (ptr, ...) @printf(ptr noundef nonnull dereferenceable(1) @.str.4, i32 noundef %.0.lcssa.i, i32 noundef %4)
  tail call void @Gia_ManIncrementTravId(ptr noundef nonnull %0) #24
  %32 = load ptr, ptr %10, align 8, !tbaa !52
  %33 = getelementptr i8, ptr %32, i64 4
  %.val16.i = load i32, ptr %33, align 4, !tbaa !42
  %34 = icmp sgt i32 %.val16.i, 0
  br i1 %34, label %.lr.ph.i16, label %Gia_ManSifDelay.exit

.lr.ph.i16:                                       ; preds = %Gia_ManSifArea.exit, %36
  %indvars.iv.i17 = phi i64 [ %indvars.iv.next.i19, %36 ], [ 0, %Gia_ManSifArea.exit ]
  %35 = phi ptr [ %48, %36 ], [ %32, %Gia_ManSifArea.exit ]
  %.018.i = phi i32 [ %47, %36 ], [ 0, %Gia_ManSifArea.exit ]
  %.val14.i = load ptr, ptr %9, align 8, !tbaa !28
  %.not.i18 = icmp eq ptr %.val14.i, null
  br i1 %.not.i18, label %Gia_ManSifDelay.exit, label %36

36:                                               ; preds = %.lr.ph.i16
  %37 = getelementptr i8, ptr %35, i64 8
  %.val15.val.i = load ptr, ptr %37, align 8, !tbaa !39
  %38 = getelementptr inbounds nuw i32, ptr %.val15.val.i, i64 %indvars.iv.i17
  %39 = load i32, ptr %38, align 4, !tbaa !29
  %40 = sext i32 %39 to i64
  %41 = getelementptr inbounds %struct.Gia_Obj_t_, ptr %.val14.i, i64 %40
  %42 = load i64, ptr %41, align 4
  %43 = and i64 %42, 536870911
  %44 = sub nsw i64 0, %43
  %45 = getelementptr inbounds %struct.Gia_Obj_t_, ptr %41, i64 %44
  %46 = tail call i32 @Gia_ManSifDelay_rec(ptr noundef nonnull %0, ptr noundef nonnull %45, ptr noundef readonly %1, ptr noundef readonly %2, i32 noundef %8)
  %47 = add nsw i32 %46, %.018.i
  %indvars.iv.next.i19 = add nuw nsw i64 %indvars.iv.i17, 1
  %48 = load ptr, ptr %10, align 8, !tbaa !52
  %49 = getelementptr i8, ptr %48, i64 4
  %.val.i20 = load i32, ptr %49, align 4, !tbaa !42
  %50 = sext i32 %.val.i20 to i64
  %51 = icmp slt i64 %indvars.iv.next.i19, %50
  br i1 %51, label %.lr.ph.i16, label %Gia_ManSifDelay.exit, !llvm.loop !97

Gia_ManSifDelay.exit:                             ; preds = %.lr.ph.i16, %36, %Gia_ManSifArea.exit
  %.0.lcssa.i15 = phi i32 [ 0, %Gia_ManSifArea.exit ], [ %.018.i, %.lr.ph.i16 ], [ %47, %36 ]
  %52 = tail call i32 (ptr, ...) @printf(ptr noundef nonnull dereferenceable(1) @.str.5, i32 noundef %.0.lcssa.i15)
  br label %.critedge

.critedge:                                        ; preds = %6, %Gia_ManSifDelay.exit
  %53 = tail call ptr @Gia_ManSifTimesToCounts(ptr noundef %0, ptr noundef %2, i32 noundef %4)
  %54 = tail call ptr @Gia_ManSifDerive(ptr noundef %0, ptr noundef %53, i32 noundef %5)
  %55 = icmp eq ptr %53, null
  br i1 %55, label %Vec_IntFreeP.exit, label %56

56:                                               ; preds = %.critedge
  %57 = getelementptr inbounds nuw i8, ptr %53, i64 8
  %58 = load ptr, ptr %57, align 8, !tbaa !39
  %.not.i21 = icmp eq ptr %58, null
  br i1 %.not.i21, label %59, label %.thread.i

.thread.i:                                        ; preds = %56
  tail call void @free(ptr noundef nonnull %58) #24
  br label %59

59:                                               ; preds = %.thread.i, %56
  tail call void @free(ptr noundef nonnull %53) #24
  br label %Vec_IntFreeP.exit

Vec_IntFreeP.exit:                                ; preds = %.critedge, %59
  ret ptr %54
}